; Function Attrs: mustprogress norecurse uwtable
define internal fastcc void @_ZL15drawDescriptionRN2cv3MatEiNSt7__cxx1112basic_stringIcSt11char_traitsIcESaIcEEENS_6Point_IiEE(ptr noundef nonnull align 8 dereferenceable(96) %0, i32 noundef %1, ptr noundef nonnull %2, i64 %3) unnamed_addr #0 personality ptr @__gxx_personality_v0 {
  %5 = alloca [1024 x i8], align 16
  %6 = alloca %"class.cv::_InputOutputArray", align 8
  %7 = alloca %"class.std::__cxx11::basic_string", align 8
  %8 = alloca %"class.std::allocator.0", align 1
  %9 = alloca %"class.cv::Scalar_", align 8
  %10 = tail call noundef ptr @_ZNKSt7__cxx1112basic_stringIcSt11char_traitsIcESaIcEE5c_strEv(ptr noundef nonnull align 8 dereferenceable(32) %2) #16
  %11 = call i32 (ptr, i64, ptr, ...) @snprintf(ptr noundef nonnull dereferenceable(1) %5, i64 noundef 1024, ptr noundef nonnull @.str.6, i32 noundef %1, ptr noundef %10) #16
  %12 = getelementptr inbounds i8, ptr %6, i64 8
  %13 = getelementptr inbounds i8, ptr %6, i64 16
  store i64 0, ptr %13, align 8
  store i32 50397184, ptr %6, align 8
  store ptr %0, ptr %12, align 8
  call void @_ZNSaIcEC1Ev(ptr noundef nonnull align 1 dereferenceable(1) %8) #16
  invoke void @_ZNSt7__cxx1112basic_stringIcSt11char_traitsIcESaIcEEC1EPKcRKS3_(ptr noundef nonnull align 8 dereferenceable(32) %7, ptr noundef nonnull %5, ptr noundef nonnull align 1 dereferenceable(1) %8)
          to label %14 unwind label %16

14:                                               ; preds = %4
  call void @llvm.memset.p0.i64(ptr noundef nonnull align 8 dereferenceable(32) %9, i8 0, i64 32, i1 false)
  invoke void @_ZN2cv7putTextERKNS_17_InputOutputArrayERKNSt7__cxx1112basic_stringIcSt11char_traitsIcESaIcEEENS_6Point_IiEEidNS_7Scalar_IdEEiib(ptr noundef nonnull align 8 dereferenceable(24) %6, ptr noundef nonnull align 8 dereferenceable(32) %7, i64 %3, i32 noundef 0, double noundef 6.000000e-01, ptr noundef nonnull %9, i32 noundef 1, i32 noundef 8, i1 noundef zeroext false)
          to label %15 unwind label %18

15:                                               ; preds = %14
  call void @_ZNSt7__cxx1112basic_stringIcSt11char_traitsIcESaIcEED1Ev(ptr noundef nonnull align 8 dereferenceable(32) %7) #16
  call void @_ZNSaIcED1Ev(ptr noundef nonnull align 1 dereferenceable(1) %8) #16
  ret void

16:                                               ; preds = %4
  %17 = landingpad { ptr, i32 }
          cleanup
  br label %20

18:                                               ; preds = %14
  %19 = landingpad { ptr, i32 }
          cleanup
  call void @_ZNSt7__cxx1112basic_stringIcSt11char_traitsIcESaIcEED1Ev(ptr noundef nonnull align 8 dereferenceable(32) %7) #16
  br label %20

20:                                               ; preds = %18, %16
  %.pn = phi { ptr, i32 } [ %19, %18 ], [ %17, %16 ]
  call void @_ZNSaIcED1Ev(ptr noundef nonnull align 1 dereferenceable(1) %8) #16
  resume { ptr, i32 } %.pn
}